; Function Attrs: null_pointer_is_valid sspstrong uwtable
define internal i32 @dissect_FMP_OpenAllocSpace_request(ptr noundef %0, ptr readnone captures(none) %1, ptr noundef %2, ptr readnone captures(none) %3) #0 {
  %5 = load i32, ptr @hf_fmp_sessionHandle, align 4
  %6 = tail call i32 @dissect_rpc_data(ptr noundef %0, ptr noundef %2, i32 noundef %5, i32 noundef 0)
  %7 = tail call fastcc i32 @dissect_fmp_fileHandleSrc(ptr noundef %0, i32 noundef %6, ptr noundef %2)
  %8 = load i32, ptr @hf_fmp_firstLogBlk, align 4
  %9 = tail call i32 @dissect_rpc_uint32(ptr noundef %0, ptr noundef %2, i32 noundef %8, i32 noundef %7)
  %10 = load i32, ptr @hf_fmp_numBlksReq, align 4
  %11 = tail call i32 @dissect_rpc_uint32(ptr noundef %0, ptr noundef %2, i32 noundef %10, i32 noundef %9)
  %12 = load i32, ptr @hf_fmp_minBlks, align 4
  %13 = tail call i32 @dissect_rpc_uint32(ptr noundef %0, ptr noundef %2, i32 noundef %12, i32 noundef %11)
  ret i32 %13
}